target datalayout = "e-m:e-p270:32:32-p271:32:32-p272:64:64-i64:64-i128:128-f80:128-n8:16:32:64-S128"
target triple = "x86_64-pc-linux-gnu"

%struct.FunctionCallInfoBaseData = type { ptr, ptr, ptr, i32, i8, i16, [0 x %struct.NullableDatum] }
%struct.NullableDatum = type { i64, i8 }
%struct.FormData_pg_enum = type { i32, i32, float, %struct.nameData }
%struct.nameData = type { [64 x i8] }
%struct.HeapTupleData = type { i32, %struct.ItemPointerData, i32, ptr }
%struct.ItemPointerData = type { %struct.BlockIdData, i16 }
%struct.BlockIdData = type { i16, i16 }
%struct.HeapTupleHeaderData = type { %union.anon, %struct.ItemPointerData, i16, i16, i8, [0 x i8] }
%union.anon = type { %struct.HeapTupleFields }
%struct.HeapTupleFields = type { i32, i32, %union.anon.0 }
%union.anon.0 = type { i32 }

@.str = private unnamed_addr constant [38 x i8] c"invalid input value for enum %s: \22%s\22\00", align 1
@.str.1 = private unnamed_addr constant [7 x i8] c"enum.c\00", align 1
@__func__.enum_in = private unnamed_addr constant [8 x i8] c"enum_in\00", align 1

; Function Attrs: inlinehint nounwind uwtable
define internal i64 @PointerGetDatum(ptr noundef %0) #2 {
  %2 = alloca ptr, align 8
  store ptr %0, ptr %2, align 8
  %3 = load ptr, ptr %2, align 8
  %4 = ptrtoint ptr %3 to i64
  ret i64 %4
}

; Function Attrs: inlinehint nounwind uwtable
define internal ptr @DatumGetPointer(i64 noundef %0) #2 {
  %2 = alloca i64, align 8
  store i64 %0, ptr %2, align 8
  %3 = load i64, ptr %2, align 8
  %4 = inttoptr i64 %3 to ptr
  ret ptr %4
}

; Function Attrs: inlinehint nounwind uwtable
define internal ptr @GETSTRUCT(ptr noundef %0) #2 {
  %2 = alloca ptr, align 8
  store ptr %0, ptr %2, align 8
  %3 = load ptr, ptr %2, align 8
  %4 = getelementptr inbounds nuw %struct.HeapTupleData, ptr %3, i32 0, i32 3
  %5 = load ptr, ptr %4, align 8
  %6 = load ptr, ptr %2, align 8
  %7 = getelementptr inbounds nuw %struct.HeapTupleData, ptr %6, i32 0, i32 3
  %8 = load ptr, ptr %7, align 8
  %9 = getelementptr inbounds nuw %struct.HeapTupleHeaderData, ptr %8, i32 0, i32 4
  %10 = load i8, ptr %9, align 2
  %11 = zext i8 %10 to i32
  %12 = sext i32 %11 to i64
  %13 = getelementptr inbounds i8, ptr %5, i64 %12
  ret ptr %13
}

; Function Attrs: inlinehint nounwind uwtable
define internal i64 @CStringGetDatum(ptr noundef %0) #2 {
  %2 = alloca ptr, align 8
  store ptr %0, ptr %2, align 8
  %3 = load ptr, ptr %2, align 8
  %4 = call i64 @PointerGetDatum(ptr noundef %3)
  ret i64 %4
}

; Function Attrs: inlinehint nounwind uwtable
define internal i64 @ObjectIdGetDatum(i32 noundef %0) #2 {
  %2 = alloca i32, align 4
  store i32 %0, ptr %2, align 4
  %3 = load i32, ptr %2, align 4
  %4 = zext i32 %3 to i64
  ret i64 %4
}

; Function Attrs: inlinehint nounwind uwtable
define internal i32 @DatumGetObjectId(i64 noundef %0) #2 {
  %2 = alloca i64, align 8
  store i64 %0, ptr %2, align 8
  %3 = load i64, ptr %2, align 8
  %4 = trunc i64 %3 to i32
  ret i32 %4
}

; Function Attrs: inlinehint nounwind uwtable
define internal ptr @DatumGetCString(i64 noundef %0) #2 {
  %2 = alloca i64, align 8
  store i64 %0, ptr %2, align 8
  %3 = load i64, ptr %2, align 8
  %4 = call ptr @DatumGetPointer(i64 noundef %3)
  ret ptr %4
}

; Function Attrs: nounwind uwtable
define dso_local i64 @enum_in(ptr noundef %0) #0 {
  %2 = alloca i64, align 8
  %3 = alloca ptr, align 8
  %4 = alloca ptr, align 8
  %5 = alloca i32, align 4
  %6 = alloca ptr, align 8
  %7 = alloca i32, align 4
  %8 = alloca ptr, align 8
  %9 = alloca ptr, align 8
  %10 = alloca i32, align 4
  %11 = alloca ptr, align 8
  store ptr %0, ptr %3, align 8
  call void @llvm.lifetime.start.p0(i64 8, ptr %4) #6
  %12 = load ptr, ptr %3, align 8
  %13 = getelementptr inbounds nuw %struct.FunctionCallInfoBaseData, ptr %12, i32 0, i32 6
  %14 = getelementptr inbounds [0 x %struct.NullableDatum], ptr %13, i64 0, i64 0
  %15 = getelementptr inbounds nuw %struct.NullableDatum, ptr %14, i32 0, i32 0
  %16 = load i64, ptr %15, align 8
  %17 = call ptr @DatumGetCString(i64 noundef %16)
  store ptr %17, ptr %4, align 8
  call void @llvm.lifetime.start.p0(i64 4, ptr %5) #6
  %18 = load ptr, ptr %3, align 8
  %19 = getelementptr inbounds nuw %struct.FunctionCallInfoBaseData, ptr %18, i32 0, i32 6
  %20 = getelementptr inbounds [0 x %struct.NullableDatum], ptr %19, i64 0, i64 1
  %21 = getelementptr inbounds nuw %struct.NullableDatum, ptr %20, i32 0, i32 0
  %22 = load i64, ptr %21, align 8
  %23 = call i32 @DatumGetObjectId(i64 noundef %22)
  store i32 %23, ptr %5, align 4
  call void @llvm.lifetime.start.p0(i64 8, ptr %6) #6
  %24 = load ptr, ptr %3, align 8
  %25 = getelementptr inbounds nuw %struct.FunctionCallInfoBaseData, ptr %24, i32 0, i32 1
  %26 = load ptr, ptr %25, align 8
  store ptr %26, ptr %6, align 8
  call void @llvm.lifetime.start.p0(i64 4, ptr %7) #6
  call void @llvm.lifetime.start.p0(i64 8, ptr %8) #6
  %27 = load ptr, ptr %4, align 8
  %28 = call i64 @strlen(ptr noundef %27) #7
  %29 = icmp uge i64 %28, 64
  br i1 %29, label %30, label %48

30:                                               ; preds = %1
  br label %31

31:                                               ; preds = %30
  br label %32

32:                                               ; preds = %31
  call void @llvm.lifetime.start.p0(i64 8, ptr %9) #6
  %33 = load ptr, ptr %6, align 8
  store ptr %33, ptr %9, align 8
  %34 = load ptr, ptr %9, align 8
  %35 = call zeroext i1 @errsave_start(ptr noundef %34, ptr noundef null)
  br i1 %35, label %36, label %43

36:                                               ; preds = %32
  %37 = call i32 @errcode(i32 noundef 33685634)
  %38 = load i32, ptr %5, align 4
  %39 = call ptr @format_type_be(i32 noundef %38)
  %40 = load ptr, ptr %4, align 8
  %41 = call i32 (ptr, ...) @errmsg(ptr noundef @.str, ptr noundef %39, ptr noundef %40)
  %42 = load ptr, ptr %9, align 8
  call void @errsave_finish(ptr noundef %42, ptr noundef @.str.1, i32 noundef 123, ptr noundef @__func__.enum_in)
  br label %43

43:                                               ; preds = %36, %32
  call void @llvm.lifetime.end.p0(i64 8, ptr %9) #6
  br label %44

44:                                               ; preds = %43
  br label %45

45:                                               ; preds = %44
  store i64 0, ptr %2, align 8
  store i32 1, ptr %10, align 4
  br label %83

46:                                               ; No predecessors!
  br label %47

47:                                               ; preds = %46
  br label %48

48:                                               ; preds = %47, %1
  %49 = load i32, ptr %5, align 4
  %50 = call i64 @ObjectIdGetDatum(i32 noundef %49)
  %51 = load ptr, ptr %4, align 8
  %52 = call i64 @CStringGetDatum(ptr noundef %51)
  %53 = call ptr @SearchSysCache2(i32 noundef 24, i64 noundef %50, i64 noundef %52)
  store ptr %53, ptr %8, align 8
  %54 = load ptr, ptr %8, align 8
  %55 = icmp ne ptr %54, null
  br i1 %55, label %74, label %56

56:                                               ; preds = %48
  br label %57

57:                                               ; preds = %56
  br label %58

58:                                               ; preds = %57
  call void @llvm.lifetime.start.p0(i64 8, ptr %11) #6
  %59 = load ptr, ptr %6, align 8
  store ptr %59, ptr %11, align 8
  %60 = load ptr, ptr %11, align 8
  %61 = call zeroext i1 @errsave_start(ptr noundef %60, ptr noundef null)
  br i1 %61, label %62, label %69

62:                                               ; preds = %58
  %63 = call i32 @errcode(i32 noundef 33685634)
  %64 = load i32, ptr %5, align 4
  %65 = call ptr @format_type_be(i32 noundef %64)
  %66 = load ptr, ptr %4, align 8
  %67 = call i32 (ptr, ...) @errmsg(ptr noundef @.str, ptr noundef %65, ptr noundef %66)
  %68 = load ptr, ptr %11, align 8
  call void @errsave_finish(ptr noundef %68, ptr noundef @.str.1, i32 noundef 133, ptr noundef @__func__.enum_in)
  br label %69

69:                                               ; preds = %62, %58
  call void @llvm.lifetime.end.p0(i64 8, ptr %11) #6
  br label %70

70:                                               ; preds = %69
  br label %71

71:                                               ; preds = %70
  store i64 0, ptr %2, align 8
  store i32 1, ptr %10, align 4
  br label %83

72:                                               ; No predecessors!
  br label %73

73:                                               ; preds = %72
  br label %74

74:                                               ; preds = %73, %48
  %75 = load ptr, ptr %8, align 8
  call void @check_safe_enum_use(ptr noundef %75)
  %76 = load ptr, ptr %8, align 8
  %77 = call ptr @GETSTRUCT(ptr noundef %76)
  %78 = getelementptr inbounds nuw %struct.FormData_pg_enum, ptr %77, i32 0, i32 0
  %79 = load i32, ptr %78, align 4
  store i32 %79, ptr %7, align 4
  %80 = load ptr, ptr %8, align 8
  call void @ReleaseSysCache(ptr noundef %80)
  %81 = load i32, ptr %7, align 4
  %82 = call i64 @ObjectIdGetDatum(i32 noundef %81)
  store i64 %82, ptr %2, align 8
  store i32 1, ptr %10, align 4
  br label %83

83:                                               ; preds = %74, %71, %45
  call void @llvm.lifetime.end.p0(i64 8, ptr %8) #6
  call void @llvm.lifetime.end.p0(i64 4, ptr %7) #6
  call void @llvm.lifetime.end.p0(i64 8, ptr %6) #6
  call void @llvm.lifetime.end.p0(i64 4, ptr %5) #6
  call void @llvm.lifetime.end.p0(i64 8, ptr %4) #6
  %84 = load i64, ptr %2, align 8
  ret i64 %84
}