; Function Attrs: nounwind uwtable
define dso_local range(i64 0, 4294967296) i64 @enum_in(ptr noundef readonly captures(none) %0) local_unnamed_addr #0 {
  %2 = getelementptr inbounds nuw i8, ptr %0, i64 32
  %3 = load i64, ptr %2, align 8
  %4 = inttoptr i64 %3 to ptr
  %5 = getelementptr inbounds nuw i8, ptr %0, i64 48
  %6 = load i64, ptr %5, align 8
  %7 = trunc i64 %6 to i32
  %8 = getelementptr inbounds nuw i8, ptr %0, i64 8
  %9 = load ptr, ptr %8, align 8
  %10 = tail call i64 @strlen(ptr noundef nonnull dereferenceable(1) %4) #7
  %11 = icmp ugt i64 %10, 63
  br i1 %11, label %12, label %18

12:                                               ; preds = %1
  %13 = tail call zeroext i1 @errsave_start(ptr noundef %9, ptr noundef null) #8
  br i1 %13, label %14, label %35

14:                                               ; preds = %12
  %15 = tail call i32 @errcode(i32 noundef 33685634) #8
  %16 = tail call ptr @format_type_be(i32 noundef %7) #8
  %17 = tail call i32 (ptr, ...) @errmsg(ptr noundef nonnull @.str, ptr noundef %16, ptr noundef nonnull %4) #8
  tail call void @errsave_finish(ptr noundef %9, ptr noundef nonnull @.str.1, i32 noundef 123, ptr noundef nonnull @__func__.enum_in) #8
  br label %35

18:                                               ; preds = %1
  %19 = and i64 %6, 4294967295
  %20 = tail call ptr @SearchSysCache2(i32 noundef 24, i64 noundef %19, i64 noundef %3) #8
  %.not = icmp eq ptr %20, null
  br i1 %.not, label %21, label %27

21:                                               ; preds = %18
  %22 = tail call zeroext i1 @errsave_start(ptr noundef %9, ptr noundef null) #8
  br i1 %22, label %23, label %35

23:                                               ; preds = %21
  %24 = tail call i32 @errcode(i32 noundef 33685634) #8
  %25 = tail call ptr @format_type_be(i32 noundef %7) #8
  %26 = tail call i32 (ptr, ...) @errmsg(ptr noundef nonnull @.str, ptr noundef %25, ptr noundef nonnull %4) #8
  tail call void @errsave_finish(ptr noundef %9, ptr noundef nonnull @.str.1, i32 noundef 133, ptr noundef nonnull @__func__.enum_in) #8
  br label %35

27:                                               ; preds = %18
  %28 = getelementptr i8, ptr %20, i64 16
  %.val22 = load ptr, ptr %28, align 8
  tail call fastcc void @check_safe_enum_use(ptr %.val22)
  %.val = load ptr, ptr %28, align 8
  %29 = getelementptr inbounds nuw i8, ptr %.val, i64 22
  %30 = load i8, ptr %29, align 2
  %31 = zext i8 %30 to i64
  %32 = getelementptr inbounds nuw i8, ptr %.val, i64 %31
  %33 = load i32, ptr %32, align 4
  tail call void @ReleaseSysCache(ptr noundef nonnull %20) #8
  %34 = zext i32 %33 to i64
  br label %35

35:                                               ; preds = %21, %23, %12, %14, %27
  %.0 = phi i64 [ %34, %27 ], [ 0, %14 ], [ 0, %12 ], [ 0, %23 ], [ 0, %21 ]
  ret i64 %.0
}